target datalayout = "e-m:e-p270:32:32-p271:32:32-p272:64:64-i64:64-i128:128-f80:128-n8:16:32:64-S128"
target triple = "x86_64-pc-linux-gnu"

%"class.std::__shared_count" = type { ptr }
%"struct.toku::lt_lock_request_info" = type <{ %"class.toku::omt", %"struct.std::atomic", [7 x i8], %"class.std::shared_ptr.3", i8, [7 x i8], %"struct.toku::lt_counters", %"struct.std::atomic.6", i64, %struct.toku_mutex_t, %struct.toku_cond_t, i8, [7 x i8] }>
%"class.toku::omt" = type { i8, i32, %union.anon }
%union.anon = type { %"struct.toku::omt<toku::lock_request *>::omt_array" }
%"struct.toku::omt<toku::lock_request *>::omt_array" = type { i32, i32, ptr }
%"struct.std::atomic" = type { %"struct.std::__atomic_base" }
%"struct.std::__atomic_base" = type { i8 }
%"class.std::shared_ptr.3" = type { %"class.std::__shared_ptr.4" }
%"class.std::__shared_ptr.4" = type { ptr, %"class.std::__shared_count" }
%"struct.toku::lt_counters" = type { i64, i64, i64, i64, i64 }
%"struct.std::atomic.6" = type { %"struct.std::__atomic_base.7" }
%"struct.std::__atomic_base.7" = type { i64 }
%struct.toku_mutex_t = type { %union.pthread_mutex_t, ptr }
%union.pthread_mutex_t = type { %struct.__pthread_mutex_s }
%struct.__pthread_mutex_s = type { i32, i32, i32, i32, i32, i16, i16, %struct.__pthread_internal_list }
%struct.__pthread_internal_list = type { ptr, ptr }
%struct.toku_cond_t = type { %union.pthread_cond_t, ptr }
%union.pthread_cond_t = type { %struct.__pthread_cond_s }
%struct.__pthread_cond_s = type { %union.__atomic_wide_counter, %union.__atomic_wide_counter, [2 x i32], [2 x i32], i32, i32, [2 x i32] }
%union.__atomic_wide_counter = type { i64 }
%struct.toku_mutex_instrumentation = type { i8 }
%struct.toku_cond_instrumentation = type { i8 }

@.str = private unnamed_addr constant [167 x i8] c"generated/home/dtcxzyw/WorkSpace/Projects/compilers/llvm-opt-benchmark/bench/rocksdb/rocksdb/utilities/transactions/lock/range/range_tree/lib/locktree/lock_request.cc\00", align 1

; Function Attrs: noinline noreturn nounwind uwtable
define linkonce_odr hidden void @__clang_call_terminate(ptr noundef %0) #8 comdat {
  %2 = call ptr @__cxa_begin_catch(ptr %0) #17
  call void @_ZSt9terminatev() #18
  unreachable
}

; Function Attrs: mustprogress nounwind uwtable
define linkonce_odr noundef i32 @_ZStanSt12memory_orderSt23__memory_order_modifier(i32 noundef %0, i32 noundef %1) #3 comdat {
  %3 = alloca i32, align 4
  %4 = alloca i32, align 4
  store i32 %0, ptr %3, align 4, !tbaa !222
  store i32 %1, ptr %4, align 4, !tbaa !224
  %5 = load i32, ptr %3, align 4, !tbaa !222
  %6 = load i32, ptr %4, align 4, !tbaa !224
  %7 = and i32 %5, %6
  ret i32 %7
}

; Function Attrs: inlinehint mustprogress nounwind uwtable
define linkonce_odr void @_Z24toku_instr_cond_wait_endR25toku_cond_instrumentationi(ptr noundef nonnull align 1 dereferenceable(1) %0, i32 noundef %1) #4 comdat {
  %3 = alloca ptr, align 8
  %4 = alloca i32, align 4
  store ptr %0, ptr %3, align 8, !tbaa !229
  store i32 %1, ptr %4, align 4, !tbaa !61
  ret void
}

; Function Attrs: inlinehint mustprogress nounwind uwtable
define linkonce_odr void @_Z26toku_instr_cond_wait_startR25toku_cond_instrumentation18toku_instr_cond_opR11toku_cond_tR12toku_mutex_tPKci(ptr noundef nonnull align 1 dereferenceable(1) %0, i32 noundef %1, ptr noundef nonnull align 8 dereferenceable(56) %2, ptr noundef nonnull align 8 dereferenceable(48) %3, ptr noundef %4, i32 noundef %5) #4 comdat {
  %7 = alloca ptr, align 8
  %8 = alloca i32, align 4
  %9 = alloca ptr, align 8
  %10 = alloca ptr, align 8
  %11 = alloca ptr, align 8
  %12 = alloca i32, align 4
  store ptr %0, ptr %7, align 8, !tbaa !229
  store i32 %1, ptr %8, align 4, !tbaa !231
  store ptr %2, ptr %9, align 8, !tbaa !134
  store ptr %3, ptr %10, align 8, !tbaa !127
  store ptr %4, ptr %11, align 8, !tbaa !129
  store i32 %5, ptr %12, align 4, !tbaa !61
  ret void
}

; Function Attrs: inlinehint mustprogress nounwind uwtable
define linkonce_odr void @_Z25toku_instr_cond_broadcastR11toku_cond_t(ptr noundef nonnull align 8 dereferenceable(56) %0) #4 comdat {
  %2 = alloca ptr, align 8
  store ptr %0, ptr %2, align 8, !tbaa !134
  ret void
}

; Function Attrs: inlinehint mustprogress nounwind uwtable
define linkonce_odr void @_Z23toku_instr_mutex_unlockP9PSI_mutex(ptr noundef %0) #4 comdat {
  %2 = alloca ptr, align 8
  store ptr %0, ptr %2, align 8, !tbaa !228
  ret void
}

; Function Attrs: alwaysinline mustprogress nounwind uwtable
define linkonce_odr noundef i64 @_ZNKSt13__atomic_baseIyE4loadESt12memory_order(ptr noundef nonnull align 8 dereferenceable(8) %0, i32 noundef %1) #11 comdat align 2 {
  %3 = alloca ptr, align 8
  %4 = alloca i32, align 4
  %5 = alloca i32, align 4
  %6 = alloca i64, align 8
  store ptr %0, ptr %3, align 8, !tbaa !125
  store i32 %1, ptr %4, align 4, !tbaa !222
  %7 = load ptr, ptr %3, align 8
  call void @llvm.lifetime.start.p0(i64 4, ptr %5) #17
  %8 = load i32, ptr %4, align 4, !tbaa !222
  %9 = call noundef i32 @_ZStanSt12memory_orderSt23__memory_order_modifier(i32 noundef %8, i32 noundef 65535)
  store i32 %9, ptr %5, align 4, !tbaa !222
  br label %10

10:                                               ; preds = %2
  br label %11

11:                                               ; preds = %10
  br label %12

12:                                               ; preds = %11
  br label %13

13:                                               ; preds = %12
  br label %14

14:                                               ; preds = %13
  br label %15

15:                                               ; preds = %14
  %16 = getelementptr inbounds nuw %"struct.std::__atomic_base.7", ptr %7, i32 0, i32 0
  %17 = load i32, ptr %4, align 4, !tbaa !222
  switch i32 %17, label %18 [
    i32 1, label %20
    i32 2, label %20
    i32 5, label %22
  ]

18:                                               ; preds = %15
  %19 = load atomic i64, ptr %16 monotonic, align 8
  store i64 %19, ptr %6, align 8
  br label %24

20:                                               ; preds = %15, %15
  %21 = load atomic i64, ptr %16 acquire, align 8
  store i64 %21, ptr %6, align 8
  br label %24

22:                                               ; preds = %15
  %23 = load atomic i64, ptr %16 seq_cst, align 8
  store i64 %23, ptr %6, align 8
  br label %24

24:                                               ; preds = %22, %20, %18
  %25 = load i64, ptr %6, align 8, !tbaa !119
  call void @llvm.lifetime.end.p0(i64 4, ptr %5) #17
  ret i64 %25
}

; Function Attrs: inlinehint mustprogress nounwind uwtable
define linkonce_odr void @_Z25toku_instr_mutex_lock_endR26toku_mutex_instrumentationi(ptr noundef nonnull align 1 dereferenceable(1) %0, i32 noundef %1) #4 comdat {
  %3 = alloca ptr, align 8
  %4 = alloca i32, align 4
  store ptr %0, ptr %3, align 8, !tbaa !226
  store i32 %1, ptr %4, align 4, !tbaa !61
  ret void
}

; Function Attrs: inlinehint mustprogress nounwind uwtable
define linkonce_odr void @_Z27toku_instr_mutex_lock_startR26toku_mutex_instrumentationR12toku_mutex_tPKci(ptr noundef nonnull align 1 dereferenceable(1) %0, ptr noundef nonnull align 8 dereferenceable(48) %1, ptr noundef %2, i32 noundef %3) #4 comdat {
  %5 = alloca ptr, align 8
  %6 = alloca ptr, align 8
  %7 = alloca ptr, align 8
  %8 = alloca i32, align 4
  store ptr %0, ptr %5, align 8, !tbaa !226
  store ptr %1, ptr %6, align 8, !tbaa !127
  store ptr %2, ptr %7, align 8, !tbaa !129
  store i32 %3, ptr %8, align 4, !tbaa !61
  ret void
}

; Function Attrs: alwaysinline mustprogress nounwind uwtable
define linkonce_odr noundef zeroext i1 @_ZNKSt13__atomic_baseIbE4loadESt12memory_order(ptr noundef nonnull align 1 dereferenceable(1) %0, i32 noundef %1) #11 comdat align 2 personality ptr @__gxx_personality_v0 {
  %3 = alloca ptr, align 8
  %4 = alloca i32, align 4
  %5 = alloca i32, align 4
  %6 = alloca i8, align 1
  store ptr %0, ptr %3, align 8, !tbaa !220
  store i32 %1, ptr %4, align 4, !tbaa !222
  %7 = load ptr, ptr %3, align 8
  call void @llvm.lifetime.start.p0(i64 4, ptr %5) #17
  %8 = load i32, ptr %4, align 4, !tbaa !222
  %9 = invoke noundef i32 @_ZStanSt12memory_orderSt23__memory_order_modifier(i32 noundef %8, i32 noundef 65535)
          to label %10 unwind label %28

10:                                               ; preds = %2
  store i32 %9, ptr %5, align 4, !tbaa !222
  br label %11

11:                                               ; preds = %10
  br label %12

12:                                               ; preds = %11
  br label %13

13:                                               ; preds = %12
  br label %14

14:                                               ; preds = %13
  br label %15

15:                                               ; preds = %14
  br label %16

16:                                               ; preds = %15
  %17 = getelementptr inbounds nuw %"struct.std::__atomic_base", ptr %7, i32 0, i32 0
  %18 = load i32, ptr %4, align 4, !tbaa !222
  switch i32 %18, label %19 [
    i32 1, label %21
    i32 2, label %21
    i32 5, label %23
  ]

19:                                               ; preds = %16
  %20 = load atomic i8, ptr %17 monotonic, align 1
  store i8 %20, ptr %6, align 1
  br label %25

21:                                               ; preds = %16, %16
  %22 = load atomic i8, ptr %17 acquire, align 1
  store i8 %22, ptr %6, align 1
  br label %25

23:                                               ; preds = %16
  %24 = load atomic i8, ptr %17 seq_cst, align 1
  store i8 %24, ptr %6, align 1
  br label %25

25:                                               ; preds = %23, %21, %19
  %26 = load i8, ptr %6, align 1, !tbaa !51, !range !53, !noundef !54
  %27 = trunc i8 %26 to i1
  call void @llvm.lifetime.end.p0(i64 4, ptr %5) #17
  ret i1 %27

28:                                               ; preds = %2
  %29 = landingpad { ptr, i32 }
          catch ptr null
  %30 = extractvalue { ptr, i32 } %29, 0
  call void @__clang_call_terminate(ptr %30) #18
  unreachable
}

; Function Attrs: inlinehint mustprogress uwtable
define linkonce_odr void @_Z35toku_cond_wait_with_source_locationP11toku_cond_tP12toku_mutex_tPKci(ptr noundef %0, ptr noundef %1, ptr noundef %2, i32 noundef %3) #2 comdat {
  %5 = alloca ptr, align 8
  %6 = alloca ptr, align 8
  %7 = alloca ptr, align 8
  %8 = alloca i32, align 4
  %9 = alloca %struct.toku_cond_instrumentation, align 1
  %10 = alloca i32, align 4
  store ptr %0, ptr %5, align 8, !tbaa !134
  store ptr %1, ptr %6, align 8, !tbaa !127
  store ptr %2, ptr %7, align 8, !tbaa !129
  store i32 %3, ptr %8, align 4, !tbaa !61
  call void @llvm.lifetime.start.p0(i64 1, ptr %9) #17
  %11 = load ptr, ptr %5, align 8, !tbaa !134
  %12 = load ptr, ptr %6, align 8, !tbaa !127
  %13 = load ptr, ptr %7, align 8, !tbaa !129
  %14 = load i32, ptr %8, align 4, !tbaa !61
  call void @_Z26toku_instr_cond_wait_startR25toku_cond_instrumentation18toku_instr_cond_opR11toku_cond_tR12toku_mutex_tPKci(ptr noundef nonnull align 1 dereferenceable(1) %9, i32 noundef 0, ptr noundef nonnull align 8 dereferenceable(56) %11, ptr noundef nonnull align 8 dereferenceable(48) %12, ptr noundef %13, i32 noundef %14)
  call void @llvm.lifetime.start.p0(i64 4, ptr %10) #17
  %15 = load ptr, ptr %5, align 8, !tbaa !134
  %16 = getelementptr inbounds nuw %struct.toku_cond_t, ptr %15, i32 0, i32 0
  %17 = load ptr, ptr %6, align 8, !tbaa !127
  %18 = getelementptr inbounds nuw %struct.toku_mutex_t, ptr %17, i32 0, i32 0
  %19 = call i32 @pthread_cond_wait(ptr noundef %16, ptr noundef %18)
  store i32 %19, ptr %10, align 4, !tbaa !61
  %20 = load i32, ptr %10, align 4, !tbaa !61
  call void @_Z24toku_instr_cond_wait_endR25toku_cond_instrumentationi(ptr noundef nonnull align 1 dereferenceable(1) %9, i32 noundef %20)
  call void @llvm.lifetime.end.p0(i64 4, ptr %10) #17
  call void @llvm.lifetime.end.p0(i64 1, ptr %9) #17
  ret void
}

; Function Attrs: inlinehint mustprogress uwtable
define linkonce_odr void @_Z19toku_cond_broadcastP11toku_cond_t(ptr noundef %0) #2 comdat {
  %2 = alloca ptr, align 8
  %3 = alloca i32, align 4
  store ptr %0, ptr %2, align 8, !tbaa !134
  %4 = load ptr, ptr %2, align 8, !tbaa !134
  call void @_Z25toku_instr_cond_broadcastR11toku_cond_t(ptr noundef nonnull align 8 dereferenceable(56) %4)
  call void @llvm.lifetime.start.p0(i64 4, ptr %3) #17
  %5 = load ptr, ptr %2, align 8, !tbaa !134
  %6 = getelementptr inbounds nuw %struct.toku_cond_t, ptr %5, i32 0, i32 0
  %7 = call i32 @pthread_cond_broadcast(ptr noundef %6) #17
  store i32 %7, ptr %3, align 4, !tbaa !61
  call void @llvm.lifetime.end.p0(i64 4, ptr %3) #17
  ret void
}

; Function Attrs: inlinehint mustprogress uwtable
define linkonce_odr void @_Z17toku_mutex_unlockP12toku_mutex_t(ptr noundef %0) #2 comdat {
  %2 = alloca ptr, align 8
  %3 = alloca i32, align 4
  store ptr %0, ptr %2, align 8, !tbaa !127
  %4 = load ptr, ptr %2, align 8, !tbaa !127
  %5 = getelementptr inbounds nuw %struct.toku_mutex_t, ptr %4, i32 0, i32 1
  %6 = load ptr, ptr %5, align 8, !tbaa !131
  call void @_Z23toku_instr_mutex_unlockP9PSI_mutex(ptr noundef %6)
  call void @llvm.lifetime.start.p0(i64 4, ptr %3) #17
  %7 = load ptr, ptr %2, align 8, !tbaa !127
  %8 = getelementptr inbounds nuw %struct.toku_mutex_t, ptr %7, i32 0, i32 0
  %9 = call i32 @pthread_mutex_unlock(ptr noundef %8) #17
  store i32 %9, ptr %3, align 4, !tbaa !61
  call void @llvm.lifetime.end.p0(i64 4, ptr %3) #17
  ret void
}

; Function Attrs: mustprogress nounwind uwtable
define linkonce_odr noundef i64 @_ZNKSt13__atomic_baseIyEcvyEv(ptr noundef nonnull align 8 dereferenceable(8) %0) #3 comdat align 2 {
  %2 = alloca ptr, align 8
  store ptr %0, ptr %2, align 8, !tbaa !125
  %3 = load ptr, ptr %2, align 8
  %4 = call noundef i64 @_ZNKSt13__atomic_baseIyE4loadESt12memory_order(ptr noundef nonnull align 8 dereferenceable(8) %3, i32 noundef 5) #17
  ret i64 %4
}

; Function Attrs: inlinehint mustprogress uwtable
define linkonce_odr void @_Z36toku_mutex_lock_with_source_locationP12toku_mutex_tPKci(ptr noundef %0, ptr noundef %1, i32 noundef %2) #2 comdat {
  %4 = alloca ptr, align 8
  %5 = alloca ptr, align 8
  %6 = alloca i32, align 4
  %7 = alloca %struct.toku_mutex_instrumentation, align 1
  %8 = alloca i32, align 4
  store ptr %0, ptr %4, align 8, !tbaa !127
  store ptr %1, ptr %5, align 8, !tbaa !129
  store i32 %2, ptr %6, align 4, !tbaa !61
  call void @llvm.lifetime.start.p0(i64 1, ptr %7) #17
  %9 = load ptr, ptr %4, align 8, !tbaa !127
  %10 = load ptr, ptr %5, align 8, !tbaa !129
  %11 = load i32, ptr %6, align 4, !tbaa !61
  call void @_Z27toku_instr_mutex_lock_startR26toku_mutex_instrumentationR12toku_mutex_tPKci(ptr noundef nonnull align 1 dereferenceable(1) %7, ptr noundef nonnull align 8 dereferenceable(48) %9, ptr noundef %10, i32 noundef %11)
  call void @llvm.lifetime.start.p0(i64 4, ptr %8) #17
  %12 = load ptr, ptr %4, align 8, !tbaa !127
  %13 = getelementptr inbounds nuw %struct.toku_mutex_t, ptr %12, i32 0, i32 0
  %14 = call i32 @pthread_mutex_lock(ptr noundef %13) #17
  store i32 %14, ptr %8, align 4, !tbaa !61
  %15 = load i32, ptr %8, align 4, !tbaa !61
  call void @_Z25toku_instr_mutex_lock_endR26toku_mutex_instrumentationi(ptr noundef nonnull align 1 dereferenceable(1) %7, i32 noundef %15)
  call void @llvm.lifetime.end.p0(i64 4, ptr %8) #17
  call void @llvm.lifetime.end.p0(i64 1, ptr %7) #17
  ret void
}

; Function Attrs: mustprogress nounwind uwtable
define linkonce_odr noundef i64 @_ZNSt13__atomic_baseIyEpLEy(ptr noundef nonnull align 8 dereferenceable(8) %0, i64 noundef %1) #3 comdat align 2 {
  %3 = alloca ptr, align 8
  %4 = alloca i64, align 8
  %5 = alloca i64, align 8
  %6 = alloca i64, align 8
  store ptr %0, ptr %3, align 8, !tbaa !125
  store i64 %1, ptr %4, align 8, !tbaa !119
  %7 = load ptr, ptr %3, align 8
  %8 = getelementptr inbounds nuw %"struct.std::__atomic_base.7", ptr %7, i32 0, i32 0
  %9 = load i64, ptr %4, align 8, !tbaa !119
  store i64 %9, ptr %5, align 8, !tbaa !119
  %10 = load i64, ptr %5, align 8
  %11 = atomicrmw add ptr %8, i64 %10 seq_cst, align 8
  %12 = add i64 %11, %10
  store i64 %12, ptr %6, align 8
  %13 = load i64, ptr %6, align 8, !tbaa !119
  ret i64 %13
}

; Function Attrs: mustprogress nounwind uwtable
define linkonce_odr noundef zeroext i1 @_ZNKSt6atomicIbEcvbEv(ptr noundef nonnull align 1 dereferenceable(1) %0) #3 comdat align 2 {
  %2 = alloca ptr, align 8
  store ptr %0, ptr %2, align 8, !tbaa !123
  %3 = load ptr, ptr %2, align 8
  %4 = getelementptr inbounds nuw %"struct.std::atomic", ptr %3, i32 0, i32 0
  %5 = call noundef zeroext i1 @_ZNKSt13__atomic_baseIbE4loadESt12memory_order(ptr noundef nonnull align 1 dereferenceable(1) %4, i32 noundef 5) #17
  ret i1 %5
}

; Function Attrs: mustprogress uwtable
define void @_ZN4toku12lock_request23retry_all_lock_requestsEPNS_8locktreeEPFvPvPSt6vectorINS_14lock_wait_infoESaIS5_EEES3_PFvvE(ptr noundef %0, ptr noundef %1, ptr noundef %2, ptr noundef %3) #0 align 2 {
  %5 = alloca ptr, align 8
  %6 = alloca ptr, align 8
  %7 = alloca ptr, align 8
  %8 = alloca ptr, align 8
  %9 = alloca ptr, align 8
  %10 = alloca i32, align 4
  %11 = alloca i64, align 8
  store ptr %0, ptr %5, align 8, !tbaa !47
  store ptr %1, ptr %6, align 8, !tbaa !52
  store ptr %2, ptr %7, align 8, !tbaa !52
  store ptr %3, ptr %8, align 8, !tbaa !52
  call void @llvm.lifetime.start.p0(i64 8, ptr %9) #17
  %12 = load ptr, ptr %5, align 8, !tbaa !47
  %13 = call noundef ptr @_ZN4toku8locktree21get_lock_request_infoEv(ptr noundef nonnull align 8 dereferenceable(400) %12)
  store ptr %13, ptr %9, align 8, !tbaa !118
  %14 = load ptr, ptr %9, align 8, !tbaa !118
  %15 = getelementptr inbounds nuw %"struct.toku::lt_lock_request_info", ptr %14, i32 0, i32 1
  %16 = call noundef zeroext i1 @_ZNKSt6atomicIbEcvbEv(ptr noundef nonnull align 1 dereferenceable(1) %15) #17
  br i1 %16, label %17, label %18

17:                                               ; preds = %4
  store i32 1, ptr %10, align 4
  br label %70

18:                                               ; preds = %4
  call void @llvm.lifetime.start.p0(i64 8, ptr %11) #17
  %19 = load ptr, ptr %9, align 8, !tbaa !118
  %20 = getelementptr inbounds nuw %"struct.toku::lt_lock_request_info", ptr %19, i32 0, i32 7
  %21 = call noundef i64 @_ZNSt13__atomic_baseIyEpLEy(ptr noundef nonnull align 8 dereferenceable(8) %20, i64 noundef 1) #17
  store i64 %21, ptr %11, align 8, !tbaa !119
  %22 = load ptr, ptr %9, align 8, !tbaa !118
  %23 = getelementptr inbounds nuw %"struct.toku::lt_lock_request_info", ptr %22, i32 0, i32 9
  call void @_Z36toku_mutex_lock_with_source_locationP12toku_mutex_tPKci(ptr noundef %23, ptr noundef @.str, i32 noundef 368)
  %24 = load i64, ptr %11, align 8, !tbaa !119
  %25 = sub i64 %24, 1
  %26 = load ptr, ptr %9, align 8, !tbaa !118
  %27 = getelementptr inbounds nuw %"struct.toku::lt_lock_request_info", ptr %26, i32 0, i32 8
  %28 = load i64, ptr %27, align 8, !tbaa !120
  %29 = icmp eq i64 %25, %28
  br i1 %29, label %30, label %67

30:                                               ; preds = %18
  br label %31

31:                                               ; preds = %65, %30
  %32 = load ptr, ptr %9, align 8, !tbaa !118
  %33 = getelementptr inbounds nuw %"struct.toku::lt_lock_request_info", ptr %32, i32 0, i32 11
  %34 = load i8, ptr %33, align 8, !tbaa !121, !range !53, !noundef !54
  %35 = trunc i8 %34 to i1
  br i1 %35, label %60, label %36

36:                                               ; preds = %31
  %37 = load ptr, ptr %9, align 8, !tbaa !118
  %38 = getelementptr inbounds nuw %"struct.toku::lt_lock_request_info", ptr %37, i32 0, i32 11
  store i8 1, ptr %38, align 8, !tbaa !121
  %39 = load ptr, ptr %9, align 8, !tbaa !118
  %40 = getelementptr inbounds nuw %"struct.toku::lt_lock_request_info", ptr %39, i32 0, i32 7
  %41 = call noundef i64 @_ZNKSt13__atomic_baseIyEcvyEv(ptr noundef nonnull align 8 dereferenceable(8) %40) #17
  %42 = load ptr, ptr %9, align 8, !tbaa !118
  %43 = getelementptr inbounds nuw %"struct.toku::lt_lock_request_info", ptr %42, i32 0, i32 8
  store i64 %41, ptr %43, align 8, !tbaa !120
  %44 = load ptr, ptr %9, align 8, !tbaa !118
  %45 = getelementptr inbounds nuw %"struct.toku::lt_lock_request_info", ptr %44, i32 0, i32 9
  call void @_Z17toku_mutex_unlockP12toku_mutex_t(ptr noundef %45)
  %46 = load ptr, ptr %9, align 8, !tbaa !118
  %47 = load ptr, ptr %6, align 8, !tbaa !52
  %48 = load ptr, ptr %7, align 8, !tbaa !52
  call void @_ZN4toku12lock_request28retry_all_lock_requests_infoEPNS_20lt_lock_request_infoEPFvPvPSt6vectorINS_14lock_wait_infoESaIS5_EEES3_(ptr noundef %46, ptr noundef %47, ptr noundef %48)
  %49 = load ptr, ptr %8, align 8, !tbaa !52
  %50 = icmp ne ptr %49, null
  br i1 %50, label %51, label %53

51:                                               ; preds = %36
  %52 = load ptr, ptr %8, align 8, !tbaa !52
  call void %52()
  br label %53

53:                                               ; preds = %51, %36
  %54 = load ptr, ptr %9, align 8, !tbaa !118
  %55 = getelementptr inbounds nuw %"struct.toku::lt_lock_request_info", ptr %54, i32 0, i32 9
  call void @_Z36toku_mutex_lock_with_source_locationP12toku_mutex_tPKci(ptr noundef %55, ptr noundef @.str, i32 noundef 383)
  %56 = load ptr, ptr %9, align 8, !tbaa !118
  %57 = getelementptr inbounds nuw %"struct.toku::lt_lock_request_info", ptr %56, i32 0, i32 11
  store i8 0, ptr %57, align 8, !tbaa !121
  %58 = load ptr, ptr %9, align 8, !tbaa !118
  %59 = getelementptr inbounds nuw %"struct.toku::lt_lock_request_info", ptr %58, i32 0, i32 10
  call void @_Z19toku_cond_broadcastP11toku_cond_t(ptr noundef %59)
  br label %66

60:                                               ; preds = %31
  %61 = load ptr, ptr %9, align 8, !tbaa !118
  %62 = getelementptr inbounds nuw %"struct.toku::lt_lock_request_info", ptr %61, i32 0, i32 10
  %63 = load ptr, ptr %9, align 8, !tbaa !118
  %64 = getelementptr inbounds nuw %"struct.toku::lt_lock_request_info", ptr %63, i32 0, i32 9
  call void @_Z35toku_cond_wait_with_source_locationP11toku_cond_tP12toku_mutex_tPKci(ptr noundef %62, ptr noundef %64, ptr noundef @.str, i32 noundef 388)
  br label %65

65:                                               ; preds = %60
  br label %31, !llvm.loop !122

66:                                               ; preds = %53
  br label %67

67:                                               ; preds = %66, %18
  %68 = load ptr, ptr %9, align 8, !tbaa !118
  %69 = getelementptr inbounds nuw %"struct.toku::lt_lock_request_info", ptr %68, i32 0, i32 9
  call void @_Z17toku_mutex_unlockP12toku_mutex_t(ptr noundef %69)
  call void @llvm.lifetime.end.p0(i64 8, ptr %11) #17
  store i32 0, ptr %10, align 4
  br label %70

70:                                               ; preds = %67, %17
  call void @llvm.lifetime.end.p0(i64 8, ptr %9) #17
  %71 = load i32, ptr %10, align 4
  switch i32 %71, label %73 [
    i32 0, label %72
    i32 1, label %72
  ]

72:                                               ; preds = %70, %70
  ret void

73:                                               ; preds = %70
  unreachable
}