; Function Attrs: mustprogress uwtable
define void @_ZN4toku12lock_request23retry_all_lock_requestsEPNS_8locktreeEPFvPvPSt6vectorINS_14lock_wait_infoESaIS5_EEES3_PFvvE(ptr noundef nonnull %0, ptr noundef %1, ptr noundef %2, ptr noundef readonly %3) local_unnamed_addr #0 align 2 personality ptr @__gxx_personality_v0 {
  %5 = tail call noundef ptr @_ZN4toku8locktree21get_lock_request_infoEv(ptr noundef nonnull align 8 dereferenceable(400) %0)
  %6 = getelementptr inbounds nuw i8, ptr %5, i64 24
  %7 = load atomic i8, ptr %6 seq_cst, align 1
  %8 = trunc i8 %7 to i1
  br i1 %8, label %34, label %9

9:                                                ; preds = %4
  %10 = getelementptr inbounds nuw i8, ptr %5, i64 96
  %11 = atomicrmw add ptr %10, i64 1 seq_cst, align 8
  %12 = getelementptr inbounds nuw i8, ptr %5, i64 112
  %13 = tail call i32 @pthread_mutex_lock(ptr noundef nonnull %12) #22
  %14 = getelementptr inbounds nuw i8, ptr %5, i64 104
  %15 = load i64, ptr %14, align 8, !tbaa !126
  %16 = icmp eq i64 %11, %15
  br i1 %16, label %.preheader, label %32

.preheader:                                       ; preds = %9
  %17 = getelementptr inbounds nuw i8, ptr %5, i64 216
  %18 = load i8, ptr %17, align 8, !tbaa !127, !range !50, !noundef !51
  %19 = trunc nuw i8 %18 to i1
  br i1 %19, label %.lr.ph, label %._crit_edge

.lr.ph:                                           ; preds = %.preheader
  %20 = getelementptr inbounds nuw i8, ptr %5, i64 160
  br label %28

._crit_edge:                                      ; preds = %28, %.preheader
  store i8 1, ptr %17, align 8, !tbaa !127
  %21 = load atomic i64, ptr %10 seq_cst, align 8
  store i64 %21, ptr %14, align 8, !tbaa !126
  %22 = tail call i32 @pthread_mutex_unlock(ptr noundef nonnull %12) #22
  tail call void @_ZN4toku12lock_request28retry_all_lock_requests_infoEPNS_20lt_lock_request_infoEPFvPvPSt6vectorINS_14lock_wait_infoESaIS5_EEES3_(ptr noundef nonnull %5, ptr noundef %1, ptr noundef %2)
  %.not = icmp eq ptr %3, null
  br i1 %.not, label %24, label %23

23:                                               ; preds = %._crit_edge
  tail call void %3()
  br label %24

24:                                               ; preds = %23, %._crit_edge
  %25 = tail call i32 @pthread_mutex_lock(ptr noundef nonnull %12) #22
  store i8 0, ptr %17, align 8, !tbaa !127
  %26 = getelementptr inbounds nuw i8, ptr %5, i64 160
  %27 = tail call i32 @pthread_cond_broadcast(ptr noundef nonnull %26) #22
  br label %32

28:                                               ; preds = %.lr.ph, %28
  %29 = tail call i32 @pthread_cond_wait(ptr noundef nonnull %20, ptr noundef nonnull %12)
  %30 = load i8, ptr %17, align 8, !tbaa !127, !range !50, !noundef !51
  %31 = trunc nuw i8 %30 to i1
  br i1 %31, label %28, label %._crit_edge, !llvm.loop !128

32:                                               ; preds = %24, %9
  %33 = tail call i32 @pthread_mutex_unlock(ptr noundef nonnull %12) #22
  br label %34

34:                                               ; preds = %4, %32
  ret void
}